; Function Attrs: nounwind uwtable
define zeroext range(i8 0, 2) i8 @l_Array_anyMUnsafe_any___at___private_Lean_Meta_CongrTheorems_0__Lean_Meta_mkCast_go___spec__9(ptr noundef %0, ptr noundef readonly captures(none) %1, i64 noundef %2, i64 noundef %3) local_unnamed_addr #1 {
  %.not50 = icmp eq i64 %2, %3
  br i1 %.not50, label %lean_dec.exit._crit_edge, label %.lr.ph

.lr.ph:                                           ; preds = %4
  %5 = getelementptr inbounds nuw i8, ptr %1, i64 24
  br label %6

6:                                                ; preds = %.lr.ph, %60
  %.02451 = phi i64 [ %2, %.lr.ph ], [ %.327, %60 ]
  %7 = getelementptr inbounds nuw [0 x ptr], ptr %5, i64 0, i64 %.02451
  %8 = load ptr, ptr %7, align 8, !tbaa !10
  %9 = ptrtoint ptr %8 to i64
  %10 = and i64 %9, 1
  %.not.i37 = icmp eq i64 %10, 0
  br i1 %.not.i37, label %11, label %lean_array_uget.exit

11:                                               ; preds = %6
  %.val.i.i = load i32, ptr %8, align 4, !tbaa !4
  %12 = icmp sgt i32 %.val.i.i, 0
  br i1 %12, label %13, label %15, !prof !9

13:                                               ; preds = %11
  %14 = add nuw i32 %.val.i.i, 1
  store i32 %14, ptr %8, align 4, !tbaa !4
  br label %19

15:                                               ; preds = %11
  %.not.i.i = icmp eq i32 %.val.i.i, 0
  br i1 %.not.i.i, label %19, label %16

16:                                               ; preds = %15
  tail call void @lean_inc_ref_cold(ptr noundef nonnull %8) #7
  br label %19

lean_array_uget.exit:                             ; preds = %6
  %17 = lshr i64 %9, 1
  %18 = trunc i64 %17 to i32
  br label %lean_obj_tag.exit

19:                                               ; preds = %13, %15, %16
  %20 = getelementptr i8, ptr %8, i64 4
  %.val.i = load i32, ptr %20, align 4
  %21 = lshr i32 %.val.i, 24
  br label %lean_obj_tag.exit

lean_obj_tag.exit:                                ; preds = %lean_array_uget.exit, %19
  %.0.i = phi i32 [ %18, %lean_array_uget.exit ], [ %21, %19 ]
  %22 = icmp eq i32 %.0.i, 0
  br i1 %22, label %60, label %23

23:                                               ; preds = %lean_obj_tag.exit
  %24 = getelementptr inbounds nuw i8, ptr %8, i64 8
  %25 = load ptr, ptr %24, align 8, !tbaa !10
  %26 = ptrtoint ptr %25 to i64
  %27 = and i64 %26, 1
  %.not47 = icmp eq i64 %27, 0
  br i1 %.not47, label %28, label %lean_inc.exit

28:                                               ; preds = %23
  %.val.i39 = load i32, ptr %25, align 4, !tbaa !4
  %29 = icmp sgt i32 %.val.i39, 0
  br i1 %29, label %30, label %32, !prof !9

30:                                               ; preds = %28
  %31 = add nuw i32 %.val.i39, 1
  store i32 %31, ptr %25, align 4, !tbaa !4
  br label %lean_inc.exit

32:                                               ; preds = %28
  %.not.i40 = icmp eq i32 %.val.i39, 0
  br i1 %.not.i40, label %lean_inc.exit, label %33

33:                                               ; preds = %32
  tail call void @lean_inc_ref_cold(ptr noundef nonnull %25) #7
  br label %lean_inc.exit

lean_inc.exit:                                    ; preds = %33, %32, %30, %23
  br i1 %.not.i37, label %34, label %lean_dec.exit32

34:                                               ; preds = %lean_inc.exit
  %35 = load i32, ptr %8, align 4, !tbaa !4
  %36 = icmp sgt i32 %35, 1
  br i1 %36, label %37, label %39, !prof !9

37:                                               ; preds = %34
  %38 = add nsw i32 %35, -1
  store i32 %38, ptr %8, align 4, !tbaa !4
  br label %lean_dec.exit32

39:                                               ; preds = %34
  %.not.i = icmp eq i32 %35, 0
  br i1 %.not.i, label %lean_dec.exit32, label %40

40:                                               ; preds = %39
  tail call void @lean_dec_ref_cold(ptr noundef nonnull %8) #7
  br label %lean_dec.exit32

lean_dec.exit32:                                  ; preds = %40, %39, %37, %lean_inc.exit
  %41 = tail call ptr @l_Lean_LocalDecl_fvarId(ptr noundef %25) #7
  br i1 %.not47, label %42, label %lean_dec.exit31

42:                                               ; preds = %lean_dec.exit32
  %43 = load i32, ptr %25, align 4, !tbaa !4
  %44 = icmp sgt i32 %43, 1
  br i1 %44, label %45, label %47, !prof !9

45:                                               ; preds = %42
  %46 = add nsw i32 %43, -1
  store i32 %46, ptr %25, align 4, !tbaa !4
  br label %lean_dec.exit31

47:                                               ; preds = %42
  %.not.i33 = icmp eq i32 %43, 0
  br i1 %.not.i33, label %lean_dec.exit31, label %48

48:                                               ; preds = %47
  tail call void @lean_dec_ref_cold(ptr noundef nonnull %25) #7
  br label %lean_dec.exit31

lean_dec.exit31:                                  ; preds = %48, %47, %45, %lean_dec.exit32
  %49 = tail call zeroext i8 @lean_name_eq(ptr noundef %0, ptr noundef %41) #7
  %50 = ptrtoint ptr %41 to i64
  %51 = and i64 %50, 1
  %.not49 = icmp eq i64 %51, 0
  br i1 %.not49, label %52, label %lean_dec.exit

52:                                               ; preds = %lean_dec.exit31
  %53 = load i32, ptr %41, align 4, !tbaa !4
  %54 = icmp sgt i32 %53, 1
  br i1 %54, label %55, label %57, !prof !9

55:                                               ; preds = %52
  %56 = add nsw i32 %53, -1
  store i32 %56, ptr %41, align 4, !tbaa !4
  br label %lean_dec.exit

57:                                               ; preds = %52
  %.not.i35 = icmp eq i32 %53, 0
  br i1 %.not.i35, label %lean_dec.exit, label %58

58:                                               ; preds = %57
  tail call void @lean_dec_ref_cold(ptr noundef nonnull %41) #7
  br label %lean_dec.exit

lean_dec.exit:                                    ; preds = %58, %57, %55, %lean_dec.exit31
  %59 = icmp eq i8 %49, 0
  br i1 %59, label %60, label %lean_dec.exit._crit_edge

60:                                               ; preds = %lean_dec.exit, %lean_obj_tag.exit
  %.327 = add i64 %.02451, 1
  %.not = icmp eq i64 %.327, %3
  br i1 %.not, label %lean_dec.exit._crit_edge, label %6

lean_dec.exit._crit_edge:                         ; preds = %60, %lean_dec.exit, %4
  %.3.ph = phi i8 [ 0, %4 ], [ 1, %lean_dec.exit ], [ 0, %60 ]
  ret i8 %.3.ph
}